; Function Attrs: mustprogress nofree norecurse nosync nounwind willreturn memory(read, inaccessiblemem: none) uwtable
define { ptr, i32 } @_ZN10OpenSubdiv6v3_6_03Vtr8internal5Level17getFaceFVarValuesEii(ptr noundef nonnull readonly align 8 captures(none) dereferenceable(480) %0, i32 noundef %1, i32 noundef %2) local_unnamed_addr #13 align 2 {
  %4 = getelementptr inbounds nuw i8, ptr %0, i64 456
  %5 = sext i32 %2 to i64
  %6 = load ptr, ptr %4, align 8
  %7 = getelementptr inbounds ptr, ptr %6, i64 %5
  %8 = load ptr, ptr %7, align 8
  %9 = load ptr, ptr %8, align 8
  %10 = getelementptr inbounds nuw i8, ptr %9, i64 24
  %11 = shl nsw i32 %1, 1
  %12 = sext i32 %11 to i64
  %13 = load ptr, ptr %10, align 8
  %14 = getelementptr inbounds i32, ptr %13, i64 %12
  %15 = load i32, ptr %14, align 4
  %16 = or disjoint i32 %11, 1
  %17 = sext i32 %16 to i64
  %18 = getelementptr inbounds i32, ptr %13, i64 %17
  %19 = load i32, ptr %18, align 4
  %20 = getelementptr inbounds nuw i8, ptr %8, i64 24
  %21 = sext i32 %19 to i64
  %22 = load ptr, ptr %20, align 8
  %23 = getelementptr inbounds i32, ptr %22, i64 %21
  %.fca.0.insert.i = insertvalue { ptr, i32 } poison, ptr %23, 0
  %.fca.1.insert.i = insertvalue { ptr, i32 } %.fca.0.insert.i, i32 %15, 1
  ret { ptr, i32 } %.fca.1.insert.i
}